; Function Attrs: mustprogress nofree nounwind willreturn memory(write, argmem: none, inaccessiblemem: readwrite) uwtable
define noalias noundef ptr @Inta_ManAlloc() local_unnamed_addr #0 {
  %calloc = tail call dereferenceable_or_null(168) ptr @calloc(i64 1, i64 168)
  %1 = tail call noalias dereferenceable_or_null(16) ptr @malloc(i64 noundef 16) #18
  %2 = getelementptr inbounds nuw i8, ptr %1, i64 4
  store i32 0, ptr %2, align 4, !tbaa !3
  store i32 1000, ptr %1, align 8, !tbaa !10
  %3 = tail call noalias dereferenceable_or_null(4000) ptr @malloc(i64 noundef 4000) #18
  %4 = getelementptr inbounds nuw i8, ptr %1, i64 8
  store ptr %3, ptr %4, align 8, !tbaa !11
  %5 = getelementptr inbounds nuw i8, ptr %calloc, i64 136
  store ptr %1, ptr %5, align 8, !tbaa !12
  %6 = getelementptr inbounds nuw i8, ptr %calloc, i64 20
  store i32 1, ptr %6, align 4, !tbaa !22
  ret ptr %calloc
}